target datalayout = "e-m:e-p270:32:32-p271:32:32-p272:64:64-i64:64-i128:128-f80:128-n8:16:32:64-S128"
target triple = "x86_64-pc-linux-gnu"

; Function Attrs: inlinehint nounwind sspstrong willreturn memory(none) uwtable
define internal zeroext i1 @RB_FIXNUM_P(i64 noundef %0) #4 {
  %2 = alloca i64, align 8
  store i64 %0, ptr %2, align 8, !tbaa !7
  %3 = load i64, ptr %2, align 8, !tbaa !7
  %4 = and i64 %3, 1
  %5 = icmp ne i64 %4, 0
  ret i1 %5
}

; Function Attrs: nounwind sspstrong uwtable
define internal zeroext i1 @step_i_iter(i64 noundef %0) #0 {
  %2 = alloca i1, align 1
  %3 = alloca i64, align 8
  %4 = alloca ptr, align 8
  %5 = alloca i32, align 4
  store i64 %0, ptr %3, align 8, !tbaa !7
  call void @llvm.lifetime.start.p0(i64 8, ptr %4) #18
  %6 = load i64, ptr %3, align 8, !tbaa !7
  %7 = inttoptr i64 %6 to ptr
  store ptr %7, ptr %4, align 8, !tbaa !13
  %8 = load ptr, ptr %4, align 8, !tbaa !13
  %9 = getelementptr i64, ptr %8, i64 0
  %10 = load i64, ptr %9, align 8, !tbaa !7
  %11 = call zeroext i1 @RB_FIXNUM_P(i64 noundef %10) #19
  br i1 %11, label %12, label %17

12:                                               ; preds = %1
  %13 = load ptr, ptr %4, align 8, !tbaa !13
  %14 = getelementptr i64, ptr %13, i64 0
  %15 = load i64, ptr %14, align 8, !tbaa !7
  %16 = sub i64 %15, 2
  store i64 %16, ptr %14, align 8, !tbaa !7
  br label %24

17:                                               ; preds = %1
  %18 = load ptr, ptr %4, align 8, !tbaa !13
  %19 = getelementptr i64, ptr %18, i64 0
  %20 = load i64, ptr %19, align 8, !tbaa !7
  %21 = call i64 (i64, i64, i32, ...) @rb_funcall(i64 noundef %20, i64 noundef 45, i32 noundef 1, i64 noundef 3)
  %22 = load ptr, ptr %4, align 8, !tbaa !13
  %23 = getelementptr i64, ptr %22, i64 0
  store i64 %21, ptr %23, align 8, !tbaa !7
  br label %24

24:                                               ; preds = %17, %12
  %25 = load ptr, ptr %4, align 8, !tbaa !13
  %26 = getelementptr i64, ptr %25, i64 0
  %27 = load i64, ptr %26, align 8, !tbaa !7
  %28 = icmp ne i64 %27, 1
  br i1 %28, label %29, label %30

29:                                               ; preds = %24
  store i1 false, ptr %2, align 1
  store i32 1, ptr %5, align 4
  br label %36

30:                                               ; preds = %24
  %31 = load ptr, ptr %4, align 8, !tbaa !13
  %32 = getelementptr i64, ptr %31, i64 1
  %33 = load i64, ptr %32, align 8, !tbaa !7
  %34 = load ptr, ptr %4, align 8, !tbaa !13
  %35 = getelementptr i64, ptr %34, i64 0
  store i64 %33, ptr %35, align 8, !tbaa !7
  store i1 true, ptr %2, align 1
  store i32 1, ptr %5, align 4
  br label %36

36:                                               ; preds = %30, %29
  call void @llvm.lifetime.end.p0(i64 8, ptr %4) #18
  %37 = load i1, ptr %2, align 1
  ret i1 %37
}

; Function Attrs: nounwind sspstrong uwtable
define internal i32 @step_i(i64 noundef %0, i64 noundef %1) #0 {
  %3 = alloca i64, align 8
  %4 = alloca i64, align 8
  store i64 %0, ptr %3, align 8, !tbaa !7
  store i64 %1, ptr %4, align 8, !tbaa !7
  %5 = load i64, ptr %4, align 8, !tbaa !7
  %6 = call zeroext i1 @step_i_iter(i64 noundef %5)
  br i1 %6, label %7, label %10

7:                                                ; preds = %2
  %8 = load i64, ptr %3, align 8, !tbaa !7
  %9 = call i64 @rb_yield(i64 noundef %8)
  br label %10

10:                                               ; preds = %7, %2
  ret i32 0
}